target datalayout = "e-m:e-p270:32:32-p271:32:32-p272:64:64-i64:64-i128:128-f80:128-n8:16:32:64-S128"
target triple = "x86_64-pc-linux-gnu"

%struct.timeval = type { i64, i64 }

; Function Attrs: nounwind uwtable
define void @getQuESTDefaultSeedKey(ptr noundef %0) #0 {
  %2 = alloca ptr, align 8
  %3 = alloca %struct.timeval, align 8
  %4 = alloca double, align 8
  %5 = alloca i64, align 8
  %6 = alloca i64, align 8
  store ptr %0, ptr %2, align 8, !tbaa !37
  call void @llvm.lifetime.start.p0(i64 16, ptr %3) #8
  %7 = call i32 @gettimeofday(ptr noundef %3, ptr noundef null) #8
  call void @llvm.lifetime.start.p0(i64 8, ptr %4) #8
  %8 = getelementptr inbounds nuw %struct.timeval, ptr %3, i32 0, i32 0
  %9 = load i64, ptr %8, align 8, !tbaa !39
  %10 = mul nsw i64 %9, 1000
  %11 = getelementptr inbounds nuw %struct.timeval, ptr %3, i32 0, i32 1
  %12 = load i64, ptr %11, align 8, !tbaa !41
  %13 = sdiv i64 %12, 1000
  %14 = add nsw i64 %10, %13
  %15 = sitofp i64 %14 to double
  store double %15, ptr %4, align 8, !tbaa !18
  call void @llvm.lifetime.start.p0(i64 8, ptr %5) #8
  %16 = call i32 @getpid() #8
  %17 = sext i32 %16 to i64
  store i64 %17, ptr %5, align 8, !tbaa !34
  call void @llvm.lifetime.start.p0(i64 8, ptr %6) #8
  %18 = load double, ptr %4, align 8, !tbaa !18
  %19 = fptoui double %18 to i64
  store i64 %19, ptr %6, align 8, !tbaa !34
  %20 = load i64, ptr %6, align 8, !tbaa !34
  %21 = load ptr, ptr %2, align 8, !tbaa !37
  %22 = getelementptr inbounds i64, ptr %21, i64 0
  store i64 %20, ptr %22, align 8, !tbaa !34
  %23 = load i64, ptr %5, align 8, !tbaa !34
  %24 = load ptr, ptr %2, align 8, !tbaa !37
  %25 = getelementptr inbounds i64, ptr %24, i64 1
  store i64 %23, ptr %25, align 8, !tbaa !34
  call void @llvm.lifetime.end.p0(i64 8, ptr %6) #8
  call void @llvm.lifetime.end.p0(i64 8, ptr %5) #8
  call void @llvm.lifetime.end.p0(i64 8, ptr %4) #8
  call void @llvm.lifetime.end.p0(i64 16, ptr %3) #8
  ret void
}