; Function Attrs: nounwind uwtable
define void @getQuESTDefaultSeedKey(ptr noundef writeonly captures(none) initializes((0, 16)) %0) local_unnamed_addr #11 {
  %2 = alloca %struct.timeval, align 8
  call void @llvm.lifetime.start.p0(i64 16, ptr nonnull %2) #22
  %3 = call i32 @gettimeofday(ptr noundef nonnull %2, ptr noundef null) #22
  %4 = load i64, ptr %2, align 8, !tbaa !25
  %5 = mul nsw i64 %4, 1000
  %6 = getelementptr inbounds nuw i8, ptr %2, i64 8
  %7 = load i64, ptr %6, align 8, !tbaa !28
  %8 = sdiv i64 %7, 1000
  %9 = add nsw i64 %8, %5
  %10 = sitofp i64 %9 to double
  %11 = tail call i32 @getpid() #22
  %12 = sext i32 %11 to i64
  %13 = fptoui double %10 to i64
  store i64 %13, ptr %0, align 8, !tbaa !29
  %14 = getelementptr inbounds nuw i8, ptr %0, i64 8
  store i64 %12, ptr %14, align 8, !tbaa !29
  call void @llvm.lifetime.end.p0(i64 16, ptr nonnull %2) #22
  ret void
}